; Function Attrs: mustprogress nounwind uwtable
define internal void @"_ZNSt17_Function_handlerIFvvEZN4llvm13DWARFVerifier15verifyDieRangesERKNS1_8DWARFDieERNS2_12DieRangeInfoEE3$_3E9_M_invokeERKSt9_Any_data"(ptr nocapture noundef nonnull readonly align 8 dereferenceable(16) %0) #0 align 2 {
  %.val = load ptr, ptr %0, align 8
  %2 = load ptr, ptr %.val, align 8
  %3 = load ptr, ptr %2, align 8
  %4 = tail call noundef nonnull align 8 dereferenceable(48) ptr @_ZN4llvm9WithColor5errorERNS_11raw_ostreamENS_9StringRefEb(ptr noundef nonnull align 8 dereferenceable(48) %3, ptr nonnull @.str.145, i64 0, i1 noundef zeroext false) #26
  %5 = getelementptr inbounds nuw i8, ptr %4, i64 24
  %6 = load ptr, ptr %5, align 8
  %7 = getelementptr inbounds nuw i8, ptr %4, i64 32
  %8 = load ptr, ptr %7, align 8
  %9 = ptrtoint ptr %6 to i64
  %10 = ptrtoint ptr %8 to i64
  %11 = sub i64 %9, %10
  %12 = icmp ult i64 %11, 60
  br i1 %12, label %13, label %15

13:                                               ; preds = %1
  %14 = tail call noundef nonnull align 8 dereferenceable(48) ptr @_ZN4llvm11raw_ostream5writeEPKcm(ptr noundef nonnull align 8 dereferenceable(48) %4, ptr noundef nonnull @.str.201, i64 noundef 60) #26
  br label %_ZN4llvm11raw_ostreamlsEPKc.exit.i.i.i

15:                                               ; preds = %1
  tail call void @llvm.memcpy.p0.p0.i64(ptr noundef nonnull align 1 dereferenceable(60) %8, ptr noundef nonnull align 1 dereferenceable(60) @.str.201, i64 60, i1 false)
  %16 = load ptr, ptr %7, align 8
  %17 = getelementptr inbounds i8, ptr %16, i64 60
  store ptr %17, ptr %7, align 8
  br label %_ZN4llvm11raw_ostreamlsEPKc.exit.i.i.i

_ZN4llvm11raw_ostreamlsEPKc.exit.i.i.i:           ; preds = %15, %13
  %18 = getelementptr inbounds nuw i8, ptr %.val, i64 8
  %19 = load ptr, ptr %18, align 8
  %20 = tail call noundef nonnull align 8 dereferenceable(48) ptr @_ZNK4llvm13DWARFVerifier4dumpERKNS_8DWARFDieEj(ptr noundef nonnull align 8 dereferenceable(242) %2, ptr noundef nonnull align 8 dereferenceable(16) %19, i32 noundef 0)
  %21 = getelementptr inbounds nuw i8, ptr %.val, i64 16
  %22 = load ptr, ptr %21, align 8
  %23 = tail call noundef nonnull align 8 dereferenceable(48) ptr @_ZNK4llvm13DWARFVerifier4dumpERKNS_8DWARFDieEj(ptr noundef nonnull align 8 dereferenceable(242) %2, ptr noundef nonnull align 8 dereferenceable(16) %22, i32 noundef 2)
  %24 = getelementptr inbounds nuw i8, ptr %23, i64 32
  %25 = load ptr, ptr %24, align 8
  %26 = getelementptr inbounds nuw i8, ptr %23, i64 24
  %27 = load ptr, ptr %26, align 8
  %.not.i.i.i.i = icmp ult ptr %25, %27
  br i1 %.not.i.i.i.i, label %30, label %28

28:                                               ; preds = %_ZN4llvm11raw_ostreamlsEPKc.exit.i.i.i
  %29 = tail call noundef nonnull align 8 dereferenceable(48) ptr @_ZN4llvm11raw_ostream5writeEh(ptr noundef nonnull align 8 dereferenceable(48) %23, i8 noundef zeroext 10) #26
  br label %"_ZSt10__invoke_rIvRZN4llvm13DWARFVerifier15verifyDieRangesERKNS0_8DWARFDieERNS1_12DieRangeInfoEE3$_3JEENSt9enable_ifIX16is_invocable_r_vIT_T0_DpT1_EESA_E4typeEOSB_DpOSC_.exit"

30:                                               ; preds = %_ZN4llvm11raw_ostreamlsEPKc.exit.i.i.i
  %31 = getelementptr inbounds i8, ptr %25, i64 1
  store ptr %31, ptr %24, align 8
  store i8 10, ptr %25, align 1
  br label %"_ZSt10__invoke_rIvRZN4llvm13DWARFVerifier15verifyDieRangesERKNS0_8DWARFDieERNS1_12DieRangeInfoEE3$_3JEENSt9enable_ifIX16is_invocable_r_vIT_T0_DpT1_EESA_E4typeEOSB_DpOSC_.exit"

"_ZSt10__invoke_rIvRZN4llvm13DWARFVerifier15verifyDieRangesERKNS0_8DWARFDieERNS1_12DieRangeInfoEE3$_3JEENSt9enable_ifIX16is_invocable_r_vIT_T0_DpT1_EESA_E4typeEOSB_DpOSC_.exit": ; preds = %28, %30
  ret void
}